ccopy_reg
_reconstructor
p0
(cnltk.classify.naivebayes
NaiveBayesClassifier
p1
c__builtin__
object
p2
Ntp3
Rp4
(dp5
S'_labels'
p6
(lp7
S'201'
p8
aS'200'
p9
asS'_feature_probdist'
p10
(dp11
(g8
S'contains(deal)'
p12
tp13
g0
(cnltk.probability
ELEProbDist
p14
g2
Ntp15
Rp16
(dp17
S'_gamma'
p18
F0.5
sS'_N'
p19
I26
sS'_freqdist'
p20
cnltk.probability
FreqDist
p21
((dp22
I00
I25
sI01
I1
stp23
Rp24
sS'_bins'
p25
I2
sS'_divisor'
p26
F27.0
sbs(g8
S'contains(purchase)'
p27
tp28
g0
(g14
g2
Ntp29
Rp30
(dp31
g18
F0.5
sg19
I26
sg20
g21
((dp32
I00
I26
stp33
Rp34
sg25
I1
sg26
F26.5
sbs(g8
S'contains(offer)'
p35
tp36
g0
(g14
g2
Ntp37
Rp38
(dp39
g18
F0.5
sg19
I26
sg20
g21
((dp40
I00
I19
sI01
I7
stp41
Rp42
sg25
I2
sg26
F27.0
sbs(g8
S'contains(off)'
p43
tp44
g0
(g14
g2
Ntp45
Rp46
(dp47
g18
F0.5
sg19
I26
sg20
g21
((dp48
I00
I22
sI01
I4
stp49
Rp50
sg25
I2
sg26
F27.0
sbs(g8
S'contains(discout)'
p51
tp52
g0
(g14
g2
Ntp53
Rp54
(dp55
g18
F0.5
sg19
I26
sg20
g21
((dp56
I00
I26
stp57
Rp58
sg25
I1
sg26
F26.5
sbs(g8
S'contains(coupon)'
p59
tp60
g0
(g14
g2
Ntp61
Rp62
(dp63
g18
F0.5
sg19
I26
sg20
g21
((dp64
I00
I25
sI01
I1
stp65
Rp66
sg25
I2
sg26
F27.0
sbs(g9
S'contains(free)'
p67
tp68
g0
(g14
g2
Ntp69
Rp70
(dp71
g18
F0.5
sg19
I64
sg20
g21
((dp72
I00
I25
sI01
I39
stp73
Rp74
sg25
I2
sg26
F65.0
sbs(g8
S'contains(end)'
p75
tp76
g0
(g14
g2
Ntp77
Rp78
(dp79
g18
F0.5
sg19
I26
sg20
g21
((dp80
I00
I18
sI01
I8
stp81
Rp82
sg25
I2
sg26
F27.0
sbs(g9
S'contains(deal)'
p83
tp84
g0
(g14
g2
Ntp85
Rp86
(dp87
g18
F0.5
sg19
I64
sg20
g21
((dp88
I00
I38
sI01
I26
stp89
Rp90
sg25
I2
sg26
F65.0
sbs(g9
S'contains(under)'
p91
tp92
g0
(g14
g2
Ntp93
Rp94
(dp95
g18
F0.5
sg19
I64
sg20
g21
((dp96
I00
I61
sI01
I3
stp97
Rp98
sg25
I2
sg26
F65.0
sbs(g9
S'contains(off)'
p99
tp100
g0
(g14
g2
Ntp101
Rp102
(dp103
g18
F0.5
sg19
I64
sg20
g21
((dp104
I00
I25
sI01
I39
stp105
Rp106
sg25
I2
sg26
F65.0
sbs(g9
S'contains(sale)'
p107
tp108
g0
(g14
g2
Ntp109
Rp110
(dp111
g18
F0.5
sg19
I64
sg20
g21
((dp112
I00
I39
sI01
I25
stp113
Rp114
sg25
I2
sg26
F65.0
sbs(g9
S'contains(coupon)'
p115
tp116
g0
(g14
g2
Ntp117
Rp118
(dp119
g18
F0.5
sg19
I64
sg20
g21
((dp120
I00
I55
sI01
I9
stp121
Rp122
sg25
I2
sg26
F65.0
sbs(g9
S'contains(discout)'
p123
tp124
g0
(g14
g2
Ntp125
Rp126
(dp127
g18
F0.5
sg19
I64
sg20
g21
((dp128
I00
I64
stp129
Rp130
sg25
I1
sg26
F64.5
sbs(g9
S'contains(end)'
p131
tp132
g0
(g14
g2
Ntp133
Rp134
(dp135
g18
F0.5
sg19
I64
sg20
g21
((dp136
I00
I42
sI01
I22
stp137
Rp138
sg25
I2
sg26
F65.0
sbs(g9
S'contains(buy)'
p139
tp140
g0
(g14
g2
Ntp141
Rp142
(dp143
g18
F0.5
sg19
I64
sg20
g21
((dp144
I00
I61
sI01
I3
stp145
Rp146
sg25
I2
sg26
F65.0
sbs(g9
S'contains(save)'
p147
tp148
g0
(g14
g2
Ntp149
Rp150
(dp151
g18
F0.5
sg19
I64
sg20
g21
((dp152
I00
I50
sI01
I14
stp153
Rp154
sg25
I2
sg26
F65.0
sbs(g8
S'contains(sale)'
p155
tp156
g0
(g14
g2
Ntp157
Rp158
(dp159
g18
F0.5
sg19
I26
sg20
g21
((dp160
I00
I17
sI01
I9
stp161
Rp162
sg25
I2
sg26
F27.0
sbs(g9
S'contains(new)'
p163
tp164
g0
(g14
g2
Ntp165
Rp166
(dp167
g18
F0.5
sg19
I64
sg20
g21
((dp168
I00
I45
sI01
I19
stp169
Rp170
sg25
I2
sg26
F65.0
sbs(g9
S'contains(clearance)'
p171
tp172
g0
(g14
g2
Ntp173
Rp174
(dp175
g18
F0.5
sg19
I64
sg20
g21
((dp176
I00
I64
stp177
Rp178
sg25
I1
sg26
F64.5
sbs(g8
S'contains(under)'
p179
tp180
g0
(g14
g2
Ntp181
Rp182
(dp183
g18
F0.5
sg19
I26
sg20
g21
((dp184
I00
I25
sI01
I1
stp185
Rp186
sg25
I2
sg26
F27.0
sbs(g9
S'contains(expire)'
p187
tp188
g0
(g14
g2
Ntp189
Rp190
(dp191
g18
F0.5
sg19
I64
sg20
g21
((dp192
I00
I64
stp193
Rp194
sg25
I1
sg26
F64.5
sbs(g9
S'contains(up)'
p195
tp196
g0
(g14
g2
Ntp197
Rp198
(dp199
g18
F0.5
sg19
I64
sg20
g21
((dp200
I00
I31
sI01
I33
stp201
Rp202
sg25
I2
sg26
F65.0
sbs(g8
S'contains(gift)'
p203
tp204
g0
(g14
g2
Ntp205
Rp206
(dp207
g18
F0.5
sg19
I26
sg20
g21
((dp208
I00
I17
sI01
I9
stp209
Rp210
sg25
I2
sg26
F27.0
sbs(g9
S'contains(code)'
p211
tp212
g0
(g14
g2
Ntp213
Rp214
(dp215
g18
F0.5
sg19
I64
sg20
g21
((dp216
I00
I46
sI01
I18
stp217
Rp218
sg25
I2
sg26
F65.0
sbs(g8
S'contains(new)'
p219
tp220
g0
(g14
g2
Ntp221
Rp222
(dp223
g18
F0.5
sg19
I26
sg20
g21
((dp224
I00
I14
sI01
I12
stp225
Rp226
sg25
I2
sg26
F27.0
sbs(g8
S'contains(buy)'
p227
tp228
g0
(g14
g2
Ntp229
Rp230
(dp231
g18
F0.5
sg19
I26
sg20
g21
((dp232
I00
I25
sI01
I1
stp233
Rp234
sg25
I2
sg26
F27.0
sbs(g8
S'contains(save)'
p235
tp236
g0
(g14
g2
Ntp237
Rp238
(dp239
g18
F0.5
sg19
I26
sg20
g21
((dp240
I00
I24
sI01
I2
stp241
Rp242
sg25
I2
sg26
F27.0
sbs(g8
S'contains(up)'
p243
tp244
g0
(g14
g2
Ntp245
Rp246
(dp247
g18
F0.5
sg19
I26
sg20
g21
((dp248
I00
I20
sI01
I6
stp249
Rp250
sg25
I2
sg26
F27.0
sbs(g8
S'contains(clearance)'
p251
tp252
g0
(g14
g2
Ntp253
Rp254
(dp255
g18
F0.5
sg19
I26
sg20
g21
((dp256
I00
I26
stp257
Rp258
sg25
I1
sg26
F26.5
sbs(g9
S'contains(offer)'
p259
tp260
g0
(g14
g2
Ntp261
Rp262
(dp263
g18
F0.5
sg19
I64
sg20
g21
((dp264
I00
I43
sI01
I21
stp265
Rp266
sg25
I2
sg26
F65.0
sbs(g9
S'contains(purchase)'
p267
tp268
g0
(g14
g2
Ntp269
Rp270
(dp271
g18
F0.5
sg19
I64
sg20
g21
((dp272
I00
I64
stp273
Rp274
sg25
I1
sg26
F64.5
sbs(g8
S'contains(expire)'
p275
tp276
g0
(g14
g2
Ntp277
Rp278
(dp279
g18
F0.5
sg19
I26
sg20
g21
((dp280
I00
I26
stp281
Rp282
sg25
I1
sg26
F26.5
sbs(g9
S'contains(gift)'
p283
tp284
g0
(g14
g2
Ntp285
Rp286
(dp287
g18
F0.5
sg19
I64
sg20
g21
((dp288
I00
I45
sI01
I19
stp289
Rp290
sg25
I2
sg26
F65.0
sbs(g8
S'contains(free)'
p291
tp292
g0
(g14
g2
Ntp293
Rp294
(dp295
g18
F0.5
sg19
I26
sg20
g21
((dp296
I00
I19
sI01
I7
stp297
Rp298
sg25
I2
sg26
F27.0
sbs(g8
S'contains(code)'
p299
tp300
g0
(g14
g2
Ntp301
Rp302
(dp303
g18
F0.5
sg19
I26
sg20
g21
((dp304
I00
I22
sI01
I4
stp305
Rp306
sg25
I2
sg26
F27.0
sbssS'_label_probdist'
p307
g0
(g14
g2
Ntp308
Rp309
(dp310
g18
F0.5
sg19
I90
sg20
g21
((dp311
g8
I26
sg9
I64
stp312
Rp313
sg25
I2
sg26
F91.0
sbsb.