ccopy_reg
_reconstructor
p0
(cnltk.classify.naivebayes
NaiveBayesClassifier
p1
c__builtin__
object
p2
Ntp3
Rp4
(dp5
S'_labels'
p6
(lp7
S'clot'
p8
aS'other'
p9
asS'_feature_probdist'
p10
(dp11
(g9
S'contains(bra)'
p12
tp13
g0
(cnltk.probability
ELEProbDist
p14
g2
Ntp15
Rp16
(dp17
S'_gamma'
p18
F0.5
sS'_N'
p19
I44
sS'_freqdist'
p20
cnltk.probability
FreqDist
p21
((dp22
I00
I44
stp23
Rp24
sS'_bins'
p25
I1
sS'_divisor'
p26
F44.5
sbs(g8
S'contains(tunic)'
p27
tp28
g0
(g14
g2
Ntp29
Rp30
(dp31
g18
F0.5
sg19
I16
sg20
g21
((dp32
I00
I14
sI01
I2
stp33
Rp34
sg25
I2
sg26
F17.0
sbs(g8
S'contains(tight)'
p35
tp36
g0
(g14
g2
Ntp37
Rp38
(dp39
g18
F0.5
sg19
I16
sg20
g21
((dp40
I00
I16
stp41
Rp42
sg25
I1
sg26
F16.5
sbs(g8
S'contains(suit)'
p43
tp44
g0
(g14
g2
Ntp45
Rp46
(dp47
g18
F0.5
sg19
I16
sg20
g21
((dp48
I00
I12
sI01
I4
stp49
Rp50
sg25
I2
sg26
F17.0
sbs(g9
S'contains(jegging)'
p51
tp52
g0
(g14
g2
Ntp53
Rp54
(dp55
g18
F0.5
sg19
I44
sg20
g21
((dp56
I00
I44
stp57
Rp58
sg25
I1
sg26
F44.5
sbs(g8
S'contains(sweetpant)'
p59
tp60
g0
(g14
g2
Ntp61
Rp62
(dp63
g18
F0.5
sg19
I16
sg20
g21
((dp64
I00
I16
stp65
Rp66
sg25
I1
sg26
F16.5
sbs(g9
S'contains(shorts)'
p67
tp68
g0
(g14
g2
Ntp69
Rp70
(dp71
g18
F0.5
sg19
I44
sg20
g21
((dp72
I00
I44
stp73
Rp74
sg25
I1
sg26
F44.5
sbs(g8
S'contains(look)'
p75
tp76
g0
(g14
g2
Ntp77
Rp78
(dp79
g18
F0.5
sg19
I16
sg20
g21
((dp80
I00
I15
sI01
I1
stp81
Rp82
sg25
I2
sg26
F17.0
sbs(g8
S'contains(jacket)'
p83
tp84
g0
(g14
g2
Ntp85
Rp86
(dp87
g18
F0.5
sg19
I16
sg20
g21
((dp88
I00
I16
stp89
Rp90
sg25
I1
sg26
F16.5
sbs(g8
S'contains(bottom)'
p91
tp92
g0
(g14
g2
Ntp93
Rp94
(dp95
g18
F0.5
sg19
I16
sg20
g21
((dp96
I00
I15
sI01
I1
stp97
Rp98
sg25
I2
sg26
F17.0
sbs(g8
S'contains(parka)'
p99
tp100
g0
(g14
g2
Ntp101
Rp102
(dp103
g18
F0.5
sg19
I16
sg20
g21
((dp104
I00
I16
stp105
Rp106
sg25
I1
sg26
F16.5
sbs(g9
S'contains(blazer)'
p107
tp108
g0
(g14
g2
Ntp109
Rp110
(dp111
g18
F0.5
sg19
I44
sg20
g21
((dp112
I00
I44
stp113
Rp114
sg25
I1
sg26
F44.5
sbs(g9
S'contains(skirt)'
p115
tp116
g0
(g14
g2
Ntp117
Rp118
(dp119
g18
F0.5
sg19
I44
sg20
g21
((dp120
I00
I44
stp121
Rp122
sg25
I1
sg26
F44.5
sbs(g8
S'contains(fashion)'
p123
tp124
g0
(g14
g2
Ntp125
Rp126
(dp127
g18
F0.5
sg19
I16
sg20
g21
((dp128
I00
I16
stp129
Rp130
sg25
I2
sg26
F17.0
sbs(g9
S'contains(cotton)'
p131
tp132
g0
(g14
g2
Ntp133
Rp134
(dp135
g18
F0.5
sg19
I44
sg20
g21
((dp136
I00
I44
stp137
Rp138
sg25
I2
sg26
F45.0
sbs(g8
S'contains(sweatshirt)'
p139
tp140
g0
(g14
g2
Ntp141
Rp142
(dp143
g18
F0.5
sg19
I16
sg20
g21
((dp144
I00
I16
stp145
Rp146
sg25
I1
sg26
F16.5
sbs(g9
S'contains(swimsuit)'
p147
tp148
g0
(g14
g2
Ntp149
Rp150
(dp151
g18
F0.5
sg19
I44
sg20
g21
((dp152
I00
I44
stp153
Rp154
sg25
I1
sg26
F44.5
sbs(g9
S'contains(vest)'
p155
tp156
g0
(g14
g2
Ntp157
Rp158
(dp159
g18
F0.5
sg19
I44
sg20
g21
((dp160
I00
I43
sI01
I1
stp161
Rp162
sg25
I2
sg26
F45.0
sbs(g9
S'contains(cashmere)'
p163
tp164
g0
(g14
g2
Ntp165
Rp166
(dp167
g18
F0.5
sg19
I44
sg20
g21
((dp168
I00
I44
stp169
Rp170
sg25
I1
sg26
F44.5
sbs(g8
S'contains(sleepwear)'
p171
tp172
g0
(g14
g2
Ntp173
Rp174
(dp175
g18
F0.5
sg19
I16
sg20
g21
((dp176
I00
I16
stp177
Rp178
sg25
I1
sg26
F16.5
sbs(g9
S'contains(overall)'
p179
tp180
g0
(g14
g2
Ntp181
Rp182
(dp183
g18
F0.5
sg19
I44
sg20
g21
((dp184
I00
I44
stp185
Rp186
sg25
I1
sg26
F44.5
sbs(g9
S'contains(coat)'
p187
tp188
g0
(g14
g2
Ntp189
Rp190
(dp191
g18
F0.5
sg19
I44
sg20
g21
((dp192
I00
I44
stp193
Rp194
sg25
I1
sg26
F44.5
sbs(g9
S'contains(lingerie)'
p195
tp196
g0
(g14
g2
Ntp197
Rp198
(dp199
g18
F0.5
sg19
I44
sg20
g21
((dp200
I00
I44
stp201
Rp202
sg25
I1
sg26
F44.5
sbs(g8
S'contains(sleep)'
p203
tp204
g0
(g14
g2
Ntp205
Rp206
(dp207
g18
F0.5
sg19
I16
sg20
g21
((dp208
I00
I16
stp209
Rp210
sg25
I1
sg26
F16.5
sbs(g8
S'contains(active)'
p211
tp212
g0
(g14
g2
Ntp213
Rp214
(dp215
g18
F0.5
sg19
I16
sg20
g21
((dp216
I00
I16
stp217
Rp218
sg25
I1
sg26
F16.5
sbs(g8
S'contains(man)'
p219
tp220
g0
(g14
g2
Ntp221
Rp222
(dp223
g18
F0.5
sg19
I16
sg20
g21
((dp224
I00
I16
stp225
Rp226
sg25
I2
sg26
F17.0
sbs(g9
S'contains(parka)'
p227
tp228
g0
(g14
g2
Ntp229
Rp230
(dp231
g18
F0.5
sg19
I44
sg20
g21
((dp232
I00
I44
stp233
Rp234
sg25
I1
sg26
F44.5
sbs(g9
S'contains(polo)'
p235
tp236
g0
(g14
g2
Ntp237
Rp238
(dp239
g18
F0.5
sg19
I44
sg20
g21
((dp240
I00
I43
sI01
I1
stp241
Rp242
sg25
I2
sg26
F45.0
sbs(g8
S'contains(tee)'
p243
tp244
g0
(g14
g2
Ntp245
Rp246
(dp247
g18
F0.5
sg19
I16
sg20
g21
((dp248
I00
I16
stp249
Rp250
sg25
I2
sg26
F17.0
sbs(g9
S'contains(jacket)'
p251
tp252
g0
(g14
g2
Ntp253
Rp254
(dp255
g18
F0.5
sg19
I44
sg20
g21
((dp256
I00
I44
stp257
Rp258
sg25
I1
sg26
F44.5
sbs(g9
S'contains(cami)'
p259
tp260
g0
(g14
g2
Ntp261
Rp262
(dp263
g18
F0.5
sg19
I44
sg20
g21
((dp264
I00
I44
stp265
Rp266
sg25
I1
sg26
F44.5
sbs(g9
S'contains(jumpsuit)'
p267
tp268
g0
(g14
g2
Ntp269
Rp270
(dp271
g18
F0.5
sg19
I44
sg20
g21
((dp272
I00
I44
stp273
Rp274
sg25
I1
sg26
F44.5
sbs(g9
S'contains(lace)'
p275
tp276
g0
(g14
g2
Ntp277
Rp278
(dp279
g18
F0.5
sg19
I44
sg20
g21
((dp280
I00
I43
sI01
I1
stp281
Rp282
sg25
I2
sg26
F45.0
sbs(g9
S'contains(sweatshirt)'
p283
tp284
g0
(g14
g2
Ntp285
Rp286
(dp287
g18
F0.5
sg19
I44
sg20
g21
((dp288
I00
I44
stp289
Rp290
sg25
I1
sg26
F44.5
sbs(g9
S'contains(shirt)'
p291
tp292
g0
(g14
g2
Ntp293
Rp294
(dp295
g18
F0.5
sg19
I44
sg20
g21
((dp296
I00
I44
stp297
Rp298
sg25
I2
sg26
F45.0
sbs(g8
S'contains(shorts)'
p299
tp300
g0
(g14
g2
Ntp301
Rp302
(dp303
g18
F0.5
sg19
I16
sg20
g21
((dp304
I00
I16
stp305
Rp306
sg25
I1
sg26
F16.5
sbs(g9
S'contains(fashion)'
p307
tp308
g0
(g14
g2
Ntp309
Rp310
(dp311
g18
F0.5
sg19
I44
sg20
g21
((dp312
I00
I43
sI01
I1
stp313
Rp314
sg25
I2
sg26
F45.0
sbs(g8
S'contains(undie)'
p315
tp316
g0
(g14
g2
Ntp317
Rp318
(dp319
g18
F0.5
sg19
I16
sg20
g21
((dp320
I00
I16
stp321
Rp322
sg25
I1
sg26
F16.5
sbs(g8
S'contains(lingerie)'
p323
tp324
g0
(g14
g2
Ntp325
Rp326
(dp327
g18
F0.5
sg19
I16
sg20
g21
((dp328
I00
I16
stp329
Rp330
sg25
I1
sg26
F16.5
sbs(g8
S'contains(denim)'
p331
tp332
g0
(g14
g2
Ntp333
Rp334
(dp335
g18
F0.5
sg19
I16
sg20
g21
((dp336
I00
I16
stp337
Rp338
sg25
I1
sg26
F16.5
sbs(g9
S'contains(tank)'
p339
tp340
g0
(g14
g2
Ntp341
Rp342
(dp343
g18
F0.5
sg19
I44
sg20
g21
((dp344
I00
I44
stp345
Rp346
sg25
I1
sg26
F44.5
sbs(g8
S'contains(top)'
p347
tp348
g0
(g14
g2
Ntp349
Rp350
(dp351
g18
F0.5
sg19
I16
sg20
g21
((dp352
I00
I14
sI01
I2
stp353
Rp354
sg25
I2
sg26
F17.0
sbs(g8
S'contains(t-shirt)'
p355
tp356
g0
(g14
g2
Ntp357
Rp358
(dp359
g18
F0.5
sg19
I16
sg20
g21
((dp360
I00
I16
stp361
Rp362
sg25
I1
sg26
F16.5
sbs(g8
S'contains(dress)'
p363
tp364
g0
(g14
g2
Ntp365
Rp366
(dp367
g18
F0.5
sg19
I16
sg20
g21
((dp368
I00
I11
sI01
I5
stp369
Rp370
sg25
I2
sg26
F17.0
sbs(g9
S'contains(sweetpant)'
p371
tp372
g0
(g14
g2
Ntp373
Rp374
(dp375
g18
F0.5
sg19
I44
sg20
g21
((dp376
I00
I44
stp377
Rp378
sg25
I1
sg26
F44.5
sbs(g8
S'contains(lace)'
p379
tp380
g0
(g14
g2
Ntp381
Rp382
(dp383
g18
F0.5
sg19
I16
sg20
g21
((dp384
I00
I16
stp385
Rp386
sg25
I2
sg26
F17.0
sbs(g8
S'contains(sock)'
p387
tp388
g0
(g14
g2
Ntp389
Rp390
(dp391
g18
F0.5
sg19
I16
sg20
g21
((dp392
I00
I16
stp393
Rp394
sg25
I2
sg26
F17.0
sbs(g8
S'contains(jogger)'
p395
tp396
g0
(g14
g2
Ntp397
Rp398
(dp399
g18
F0.5
sg19
I16
sg20
g21
((dp400
I00
I15
sI01
I1
stp401
Rp402
sg25
I2
sg26
F17.0
sbs(g9
S'contains(man)'
p403
tp404
g0
(g14
g2
Ntp405
Rp406
(dp407
g18
F0.5
sg19
I44
sg20
g21
((dp408
I00
I43
sI01
I1
stp409
Rp410
sg25
I2
sg26
F45.0
sbs(g8
S'contains(jumpsuit)'
p411
tp412
g0
(g14
g2
Ntp413
Rp414
(dp415
g18
F0.5
sg19
I16
sg20
g21
((dp416
I00
I16
stp417
Rp418
sg25
I1
sg26
F16.5
sbs(g9
S'contains(romper)'
p419
tp420
g0
(g14
g2
Ntp421
Rp422
(dp423
g18
F0.5
sg19
I44
sg20
g21
((dp424
I00
I44
stp425
Rp426
sg25
I1
sg26
F44.5
sbs(g9
S'contains(lounge)'
p427
tp428
g0
(g14
g2
Ntp429
Rp430
(dp431
g18
F0.5
sg19
I44
sg20
g21
((dp432
I00
I44
stp433
Rp434
sg25
I1
sg26
F44.5
sbs(g8
S'contains(legging)'
p435
tp436
g0
(g14
g2
Ntp437
Rp438
(dp439
g18
F0.5
sg19
I16
sg20
g21
((dp440
I00
I16
stp441
Rp442
sg25
I1
sg26
F16.5
sbs(g8
S'contains(swimsuit)'
p443
tp444
g0
(g14
g2
Ntp445
Rp446
(dp447
g18
F0.5
sg19
I16
sg20
g21
((dp448
I00
I16
stp449
Rp450
sg25
I1
sg26
F16.5
sbs(g9
S'contains(undie)'
p451
tp452
g0
(g14
g2
Ntp453
Rp454
(dp455
g18
F0.5
sg19
I44
sg20
g21
((dp456
I00
I44
stp457
Rp458
sg25
I1
sg26
F44.5
sbs(g9
S'contains(denim)'
p459
tp460
g0
(g14
g2
Ntp461
Rp462
(dp463
g18
F0.5
sg19
I44
sg20
g21
((dp464
I00
I44
stp465
Rp466
sg25
I1
sg26
F44.5
sbs(g8
S'contains(polo)'
p467
tp468
g0
(g14
g2
Ntp469
Rp470
(dp471
g18
F0.5
sg19
I16
sg20
g21
((dp472
I00
I16
stp473
Rp474
sg25
I2
sg26
F17.0
sbs(g8
S'contains(coat)'
p475
tp476
g0
(g14
g2
Ntp477
Rp478
(dp479
g18
F0.5
sg19
I16
sg20
g21
((dp480
I00
I16
stp481
Rp482
sg25
I1
sg26
F16.5
sbs(g8
S'contains(couture)'
p483
tp484
g0
(g14
g2
Ntp485
Rp486
(dp487
g18
F0.5
sg19
I16
sg20
g21
((dp488
I00
I16
stp489
Rp490
sg25
I1
sg26
F16.5
sbs(g9
S'contains(bralette)'
p491
tp492
g0
(g14
g2
Ntp493
Rp494
(dp495
g18
F0.5
sg19
I44
sg20
g21
((dp496
I00
I44
stp497
Rp498
sg25
I1
sg26
F44.5
sbs(g8
S'contains(hoodie)'
p499
tp500
g0
(g14
g2
Ntp501
Rp502
(dp503
g18
F0.5
sg19
I16
sg20
g21
((dp504
I00
I16
stp505
Rp506
sg25
I1
sg26
F16.5
sbs(g8
S'contains(style)'
p507
tp508
g0
(g14
g2
Ntp509
Rp510
(dp511
g18
F0.5
sg19
I16
sg20
g21
((dp512
I00
I13
sI01
I3
stp513
Rp514
sg25
I2
sg26
F17.0
sbs(g9
S'contains(pant)'
p515
tp516
g0
(g14
g2
Ntp517
Rp518
(dp519
g18
F0.5
sg19
I44
sg20
g21
((dp520
I00
I44
stp521
Rp522
sg25
I2
sg26
F45.0
sbs(g9
S'contains(women)'
p523
tp524
g0
(g14
g2
Ntp525
Rp526
(dp527
g18
F0.5
sg19
I44
sg20
g21
((dp528
I00
I38
sI01
I6
stp529
Rp530
sg25
I2
sg26
F45.0
sbs(g8
S'contains(jegging)'
p531
tp532
g0
(g14
g2
Ntp533
Rp534
(dp535
g18
F0.5
sg19
I16
sg20
g21
((dp536
I00
I16
stp537
Rp538
sg25
I1
sg26
F16.5
sbs(g8
S'contains(stockingcrop)'
p539
tp540
g0
(g14
g2
Ntp541
Rp542
(dp543
g18
F0.5
sg19
I16
sg20
g21
((dp544
I00
I16
stp545
Rp546
sg25
I1
sg26
F16.5
sbs(g9
S'contains(t-shirt)'
p547
tp548
g0
(g14
g2
Ntp549
Rp550
(dp551
g18
F0.5
sg19
I44
sg20
g21
((dp552
I00
I44
stp553
Rp554
sg25
I1
sg26
F44.5
sbs(g9
S'contains(jean)'
p555
tp556
g0
(g14
g2
Ntp557
Rp558
(dp559
g18
F0.5
sg19
I44
sg20
g21
((dp560
I00
I44
stp561
Rp562
sg25
I2
sg26
F45.0
sbs(g9
S'contains(active)'
p563
tp564
g0
(g14
g2
Ntp565
Rp566
(dp567
g18
F0.5
sg19
I44
sg20
g21
((dp568
I00
I44
stp569
Rp570
sg25
I1
sg26
F44.5
sbs(g8
S'contains(lounge)'
p571
tp572
g0
(g14
g2
Ntp573
Rp574
(dp575
g18
F0.5
sg19
I16
sg20
g21
((dp576
I00
I16
stp577
Rp578
sg25
I1
sg26
F16.5
sbs(g8
S'contains(bralette)'
p579
tp580
g0
(g14
g2
Ntp581
Rp582
(dp583
g18
F0.5
sg19
I16
sg20
g21
((dp584
I00
I16
stp585
Rp586
sg25
I1
sg26
F16.5
sbs(g9
S'contains(apparel)'
p587
tp588
g0
(g14
g2
Ntp589
Rp590
(dp591
g18
F0.5
sg19
I44
sg20
g21
((dp592
I00
I43
sI01
I1
stp593
Rp594
sg25
I2
sg26
F45.0
sbs(g8
S'contains(shirt)'
p595
tp596
g0
(g14
g2
Ntp597
Rp598
(dp599
g18
F0.5
sg19
I16
sg20
g21
((dp600
I00
I12
sI01
I4
stp601
Rp602
sg25
I2
sg26
F17.0
sbs(g8
S'contains(apparel)'
p603
tp604
g0
(g14
g2
Ntp605
Rp606
(dp607
g18
F0.5
sg19
I16
sg20
g21
((dp608
I00
I16
stp609
Rp610
sg25
I2
sg26
F17.0
sbs(g9
S'contains(sock)'
p611
tp612
g0
(g14
g2
Ntp613
Rp614
(dp615
g18
F0.5
sg19
I44
sg20
g21
((dp616
I00
I43
sI01
I1
stp617
Rp618
sg25
I2
sg26
F45.0
sbs(g9
S'contains(suit)'
p619
tp620
g0
(g14
g2
Ntp621
Rp622
(dp623
g18
F0.5
sg19
I44
sg20
g21
((dp624
I00
I33
sI01
I11
stp625
Rp626
sg25
I2
sg26
F45.0
sbs(g9
S'contains(tunic)'
p627
tp628
g0
(g14
g2
Ntp629
Rp630
(dp631
g18
F0.5
sg19
I44
sg20
g21
((dp632
I00
I44
stp633
Rp634
sg25
I2
sg26
F45.0
sbs(g9
S'contains(sleep)'
p635
tp636
g0
(g14
g2
Ntp637
Rp638
(dp639
g18
F0.5
sg19
I44
sg20
g21
((dp640
I00
I44
stp641
Rp642
sg25
I1
sg26
F44.5
sbs(g9
S'contains(couture)'
p643
tp644
g0
(g14
g2
Ntp645
Rp646
(dp647
g18
F0.5
sg19
I44
sg20
g21
((dp648
I00
I44
stp649
Rp650
sg25
I1
sg26
F44.5
sbs(g9
S'contains(sleepwear)'
p651
tp652
g0
(g14
g2
Ntp653
Rp654
(dp655
g18
F0.5
sg19
I44
sg20
g21
((dp656
I00
I44
stp657
Rp658
sg25
I1
sg26
F44.5
sbs(g9
S'contains(top)'
p659
tp660
g0
(g14
g2
Ntp661
Rp662
(dp663
g18
F0.5
sg19
I44
sg20
g21
((dp664
I00
I40
sI01
I4
stp665
Rp666
sg25
I2
sg26
F45.0
sbs(g8
S'contains(overall)'
p667
tp668
g0
(g14
g2
Ntp669
Rp670
(dp671
g18
F0.5
sg19
I16
sg20
g21
((dp672
I00
I16
stp673
Rp674
sg25
I1
sg26
F16.5
sbs(g9
S'contains(wool)'
p675
tp676
g0
(g14
g2
Ntp677
Rp678
(dp679
g18
F0.5
sg19
I44
sg20
g21
((dp680
I00
I44
stp681
Rp682
sg25
I1
sg26
F44.5
sbs(g9
S'contains(look)'
p683
tp684
g0
(g14
g2
Ntp685
Rp686
(dp687
g18
F0.5
sg19
I44
sg20
g21
((dp688
I00
I37
sI01
I7
stp689
Rp690
sg25
I2
sg26
F45.0
sbs(g8
S'contains(bra)'
p691
tp692
g0
(g14
g2
Ntp693
Rp694
(dp695
g18
F0.5
sg19
I16
sg20
g21
((dp696
I00
I16
stp697
Rp698
sg25
I1
sg26
F16.5
sbs(g9
S'contains(bottom)'
p699
tp700
g0
(g14
g2
Ntp701
Rp702
(dp703
g18
F0.5
sg19
I44
sg20
g21
((dp704
I00
I44
stp705
Rp706
sg25
I2
sg26
F45.0
sbs(g9
S'contains(dress)'
p707
tp708
g0
(g14
g2
Ntp709
Rp710
(dp711
g18
F0.5
sg19
I44
sg20
g21
((dp712
I00
I43
sI01
I1
stp713
Rp714
sg25
I2
sg26
F45.0
sbs(g8
S'contains(sweater)'
p715
tp716
g0
(g14
g2
Ntp717
Rp718
(dp719
g18
F0.5
sg19
I16
sg20
g21
((dp720
I00
I16
stp721
Rp722
sg25
I1
sg26
F16.5
sbs(g8
S'contains(skirt)'
p723
tp724
g0
(g14
g2
Ntp725
Rp726
(dp727
g18
F0.5
sg19
I16
sg20
g21
((dp728
I00
I16
stp729
Rp730
sg25
I1
sg26
F16.5
sbs(g9
S'contains(jogger)'
p731
tp732
g0
(g14
g2
Ntp733
Rp734
(dp735
g18
F0.5
sg19
I44
sg20
g21
((dp736
I00
I44
stp737
Rp738
sg25
I2
sg26
F45.0
sbs(g8
S'contains(vest)'
p739
tp740
g0
(g14
g2
Ntp741
Rp742
(dp743
g18
F0.5
sg19
I16
sg20
g21
((dp744
I00
I16
stp745
Rp746
sg25
I2
sg26
F17.0
sbs(g8
S'contains(romper)'
p747
tp748
g0
(g14
g2
Ntp749
Rp750
(dp751
g18
F0.5
sg19
I16
sg20
g21
((dp752
I00
I16
stp753
Rp754
sg25
I1
sg26
F16.5
sbs(g9
S'contains(style)'
p755
tp756
g0
(g14
g2
Ntp757
Rp758
(dp759
g18
F0.5
sg19
I44
sg20
g21
((dp760
I00
I39
sI01
I5
stp761
Rp762
sg25
I2
sg26
F45.0
sbs(g8
S'contains(women)'
p763
tp764
g0
(g14
g2
Ntp765
Rp766
(dp767
g18
F0.5
sg19
I16
sg20
g21
((dp768
I00
I13
sI01
I3
stp769
Rp770
sg25
I2
sg26
F17.0
sbs(g8
S'contains(outlet)'
p771
tp772
g0
(g14
g2
Ntp773
Rp774
(dp775
g18
F0.5
sg19
I16
sg20
g21
((dp776
I00
I14
sI01
I2
stp777
Rp778
sg25
I2
sg26
F17.0
sbs(g8
S'contains(clothes)'
p779
tp780
g0
(g14
g2
Ntp781
Rp782
(dp783
g18
F0.5
sg19
I16
sg20
g21
((dp784
I00
I16
stp785
Rp786
sg25
I1
sg26
F16.5
sbs(g9
S'contains(tight)'
p787
tp788
g0
(g14
g2
Ntp789
Rp790
(dp791
g18
F0.5
sg19
I44
sg20
g21
((dp792
I00
I44
stp793
Rp794
sg25
I1
sg26
F44.5
sbs(g8
S'contains(blazer)'
p795
tp796
g0
(g14
g2
Ntp797
Rp798
(dp799
g18
F0.5
sg19
I16
sg20
g21
((dp800
I00
I16
stp801
Rp802
sg25
I1
sg26
F16.5
sbs(g9
S'contains(legging)'
p803
tp804
g0
(g14
g2
Ntp805
Rp806
(dp807
g18
F0.5
sg19
I44
sg20
g21
((dp808
I00
I44
stp809
Rp810
sg25
I1
sg26
F44.5
sbs(g8
S'contains(jean)'
p811
tp812
g0
(g14
g2
Ntp813
Rp814
(dp815
g18
F0.5
sg19
I16
sg20
g21
((dp816
I00
I15
sI01
I1
stp817
Rp818
sg25
I2
sg26
F17.0
sbs(g8
S'contains(cotton)'
p819
tp820
g0
(g14
g2
Ntp821
Rp822
(dp823
g18
F0.5
sg19
I16
sg20
g21
((dp824
I00
I14
sI01
I2
stp825
Rp826
sg25
I2
sg26
F17.0
sbs(g9
S'contains(hoodie)'
p827
tp828
g0
(g14
g2
Ntp829
Rp830
(dp831
g18
F0.5
sg19
I44
sg20
g21
((dp832
I00
I44
stp833
Rp834
sg25
I1
sg26
F44.5
sbs(g8
S'contains(tank)'
p835
tp836
g0
(g14
g2
Ntp837
Rp838
(dp839
g18
F0.5
sg19
I16
sg20
g21
((dp840
I00
I16
stp841
Rp842
sg25
I1
sg26
F16.5
sbs(g8
S'contains(pant)'
p843
tp844
g0
(g14
g2
Ntp845
Rp846
(dp847
g18
F0.5
sg19
I16
sg20
g21
((dp848
I00
I15
sI01
I1
stp849
Rp850
sg25
I2
sg26
F17.0
sbs(g8
S'contains(cami)'
p851
tp852
g0
(g14
g2
Ntp853
Rp854
(dp855
g18
F0.5
sg19
I16
sg20
g21
((dp856
I00
I16
stp857
Rp858
sg25
I1
sg26
F16.5
sbs(g9
S'contains(clothes)'
p859
tp860
g0
(g14
g2
Ntp861
Rp862
(dp863
g18
F0.5
sg19
I44
sg20
g21
((dp864
I00
I44
stp865
Rp866
sg25
I1
sg26
F44.5
sbs(g9
S'contains(sweater)'
p867
tp868
g0
(g14
g2
Ntp869
Rp870
(dp871
g18
F0.5
sg19
I44
sg20
g21
((dp872
I00
I44
stp873
Rp874
sg25
I1
sg26
F44.5
sbs(g8
S'contains(trousers)'
p875
tp876
g0
(g14
g2
Ntp877
Rp878
(dp879
g18
F0.5
sg19
I16
sg20
g21
((dp880
I00
I16
stp881
Rp882
sg25
I1
sg26
F16.5
sbs(g9
S'contains(trousers)'
p883
tp884
g0
(g14
g2
Ntp885
Rp886
(dp887
g18
F0.5
sg19
I44
sg20
g21
((dp888
I00
I44
stp889
Rp890
sg25
I1
sg26
F44.5
sbs(g9
S'contains(stockingcrop)'
p891
tp892
g0
(g14
g2
Ntp893
Rp894
(dp895
g18
F0.5
sg19
I44
sg20
g21
((dp896
I00
I44
stp897
Rp898
sg25
I1
sg26
F44.5
sbs(g8
S'contains(cashmere)'
p899
tp900
g0
(g14
g2
Ntp901
Rp902
(dp903
g18
F0.5
sg19
I16
sg20
g21
((dp904
I00
I16
stp905
Rp906
sg25
I1
sg26
F16.5
sbs(g8
S'contains(wool)'
p907
tp908
g0
(g14
g2
Ntp909
Rp910
(dp911
g18
F0.5
sg19
I16
sg20
g21
((dp912
I00
I16
stp913
Rp914
sg25
I1
sg26
F16.5
sbs(g9
S'contains(tee)'
p915
tp916
g0
(g14
g2
Ntp917
Rp918
(dp919
g18
F0.5
sg19
I44
sg20
g21
((dp920
I00
I43
sI01
I1
stp921
Rp922
sg25
I2
sg26
F45.0
sbs(g9
S'contains(outlet)'
p923
tp924
g0
(g14
g2
Ntp925
Rp926
(dp927
g18
F0.5
sg19
I44
sg20
g21
((dp928
I00
I42
sI01
I2
stp929
Rp930
sg25
I2
sg26
F45.0
sbssS'_label_probdist'
p931
g0
(g14
g2
Ntp932
Rp933
(dp934
g18
F0.5
sg19
I60
sg20
g21
((dp935
g8
I16
sg9
I44
stp936
Rp937
sg25
I2
sg26
F61.0
sbsb.