ccopy_reg
_reconstructor
p0
(cnltk.classify.naivebayes
NaiveBayesClassifier
p1
c__builtin__
object
p2
Ntp3
Rp4
(dp5
S'_labels'
p6
(lp7
S'acce'
p8
aS'other'
p9
asS'_feature_probdist'
p10
(dp11
(g9
S'contains(tote)'
p12
tp13
g0
(cnltk.probability
ELEProbDist
p14
g2
Ntp15
Rp16
(dp17
S'_gamma'
p18
F0.5
sS'_N'
p19
I49
sS'_freqdist'
p20
cnltk.probability
FreqDist
p21
((dp22
I00
I47
sI01
I2
stp23
Rp24
sS'_bins'
p25
I2
sS'_divisor'
p26
F50.0
sbs(g8
S'contains(wristlet)'
p27
tp28
g0
(g14
g2
Ntp29
Rp30
(dp31
g18
F0.5
sg19
I11
sg20
g21
((dp32
I00
I11
stp33
Rp34
sg25
I1
sg26
F11.5
sbs(g9
S'contains(watch)'
p35
tp36
g0
(g14
g2
Ntp37
Rp38
(dp39
g18
F0.5
sg19
I49
sg20
g21
((dp40
I00
I48
sI01
I1
stp41
Rp42
sg25
I2
sg26
F50.0
sbs(g8
S'contains(wrap)'
p43
tp44
g0
(g14
g2
Ntp45
Rp46
(dp47
g18
F0.5
sg19
I11
sg20
g21
((dp48
I00
I11
stp49
Rp50
sg25
I2
sg26
F12.0
sbs(g9
S'contains(glass)'
p51
tp52
g0
(g14
g2
Ntp53
Rp54
(dp55
g18
F0.5
sg19
I49
sg20
g21
((dp56
I00
I47
sI01
I2
stp57
Rp58
sg25
I2
sg26
F50.0
sbs(g8
S'contains(cap)'
p59
tp60
g0
(g14
g2
Ntp61
Rp62
(dp63
g18
F0.5
sg19
I11
sg20
g21
((dp64
I00
I11
stp65
Rp66
sg25
I1
sg26
F11.5
sbs(g8
S'contains(sunglass)'
p67
tp68
g0
(g14
g2
Ntp69
Rp70
(dp71
g18
F0.5
sg19
I11
sg20
g21
((dp72
I00
I10
sI01
I1
stp73
Rp74
sg25
I2
sg26
F12.0
sbs(g8
S'contains(accessory)'
p75
tp76
g0
(g14
g2
Ntp77
Rp78
(dp79
g18
F0.5
sg19
I11
sg20
g21
((dp80
I00
I11
stp81
Rp82
sg25
I1
sg26
F11.5
sbs(g9
S'contains(kipling)'
p83
tp84
g0
(g14
g2
Ntp85
Rp86
(dp87
g18
F0.5
sg19
I49
sg20
g21
((dp88
I00
I49
stp89
Rp90
sg25
I1
sg26
F49.5
sbs(g9
S'contains(wrap)'
p91
tp92
g0
(g14
g2
Ntp93
Rp94
(dp95
g18
F0.5
sg19
I49
sg20
g21
((dp96
I00
I47
sI01
I2
stp97
Rp98
sg25
I2
sg26
F50.0
sbs(g8
S'contains(glove)'
p99
tp100
g0
(g14
g2
Ntp101
Rp102
(dp103
g18
F0.5
sg19
I11
sg20
g21
((dp104
I00
I11
stp105
Rp106
sg25
I1
sg26
F11.5
sbs(g8
S'contains(watch)'
p107
tp108
g0
(g14
g2
Ntp109
Rp110
(dp111
g18
F0.5
sg19
I11
sg20
g21
((dp112
I00
I6
sI01
I5
stp113
Rp114
sg25
I2
sg26
F12.0
sbs(g9
S'contains(wallet)'
p115
tp116
g0
(g14
g2
Ntp117
Rp118
(dp119
g18
F0.5
sg19
I49
sg20
g21
((dp120
I00
I48
sI01
I1
stp121
Rp122
sg25
I2
sg26
F50.0
sbs(g9
S'contains(sunglass)'
p123
tp124
g0
(g14
g2
Ntp125
Rp126
(dp127
g18
F0.5
sg19
I49
sg20
g21
((dp128
I00
I48
sI01
I1
stp129
Rp130
sg25
I2
sg26
F50.0
sbs(g8
S'contains(hat)'
p131
tp132
g0
(g14
g2
Ntp133
Rp134
(dp135
g18
F0.5
sg19
I11
sg20
g21
((dp136
I00
I11
stp137
Rp138
sg25
I2
sg26
F12.0
sbs(g9
S'contains(handbag)'
p139
tp140
g0
(g14
g2
Ntp141
Rp142
(dp143
g18
F0.5
sg19
I49
sg20
g21
((dp144
I00
I48
sI01
I1
stp145
Rp146
sg25
I2
sg26
F50.0
sbs(g8
S'contains(bracelet)'
p147
tp148
g0
(g14
g2
Ntp149
Rp150
(dp151
g18
F0.5
sg19
I11
sg20
g21
((dp152
I00
I8
sI01
I3
stp153
Rp154
sg25
I2
sg26
F12.0
sbs(g8
S'contains(kipling)'
p155
tp156
g0
(g14
g2
Ntp157
Rp158
(dp159
g18
F0.5
sg19
I11
sg20
g21
((dp160
I00
I11
stp161
Rp162
sg25
I1
sg26
F11.5
sbs(g9
S'contains(clutch)'
p163
tp164
g0
(g14
g2
Ntp165
Rp166
(dp167
g18
F0.5
sg19
I49
sg20
g21
((dp168
I00
I49
stp169
Rp170
sg25
I1
sg26
F49.5
sbs(g9
S'contains(accessory)'
p171
tp172
g0
(g14
g2
Ntp173
Rp174
(dp175
g18
F0.5
sg19
I49
sg20
g21
((dp176
I00
I49
stp177
Rp178
sg25
I1
sg26
F49.5
sbs(g9
S'contains(earring)'
p179
tp180
g0
(g14
g2
Ntp181
Rp182
(dp183
g18
F0.5
sg19
I49
sg20
g21
((dp184
I00
I49
stp185
Rp186
sg25
I2
sg26
F50.0
sbs(g9
S'contains(scatch)'
p187
tp188
g0
(g14
g2
Ntp189
Rp190
(dp191
g18
F0.5
sg19
I49
sg20
g21
((dp192
I00
I49
stp193
Rp194
sg25
I1
sg26
F49.5
sbs(g9
S'contains(scarf)'
p195
tp196
g0
(g14
g2
Ntp197
Rp198
(dp199
g18
F0.5
sg19
I49
sg20
g21
((dp200
I00
I48
sI01
I1
stp201
Rp202
sg25
I2
sg26
F50.0
sbs(g9
S'contains(belt)'
p203
tp204
g0
(g14
g2
Ntp205
Rp206
(dp207
g18
F0.5
sg19
I49
sg20
g21
((dp208
I00
I49
stp209
Rp210
sg25
I1
sg26
F49.5
sbs(g8
S'contains(scarf)'
p211
tp212
g0
(g14
g2
Ntp213
Rp214
(dp215
g18
F0.5
sg19
I11
sg20
g21
((dp216
I00
I11
stp217
Rp218
sg25
I2
sg26
F12.0
sbs(g8
S'contains(backpack)'
p219
tp220
g0
(g14
g2
Ntp221
Rp222
(dp223
g18
F0.5
sg19
I11
sg20
g21
((dp224
I00
I11
stp225
Rp226
sg25
I2
sg26
F12.0
sbs(g8
S'contains(bangle)'
p227
tp228
g0
(g14
g2
Ntp229
Rp230
(dp231
g18
F0.5
sg19
I11
sg20
g21
((dp232
I00
I11
stp233
Rp234
sg25
I1
sg26
F11.5
sbs(g9
S'contains(necklace)'
p235
tp236
g0
(g14
g2
Ntp237
Rp238
(dp239
g18
F0.5
sg19
I49
sg20
g21
((dp240
I00
I49
stp241
Rp242
sg25
I1
sg26
F49.5
sbs(g8
S'contains(earring)'
p243
tp244
g0
(g14
g2
Ntp245
Rp246
(dp247
g18
F0.5
sg19
I11
sg20
g21
((dp248
I00
I9
sI01
I2
stp249
Rp250
sg25
I2
sg26
F12.0
sbs(g9
S'contains(ring)'
p251
tp252
g0
(g14
g2
Ntp253
Rp254
(dp255
g18
F0.5
sg19
I49
sg20
g21
((dp256
I00
I49
stp257
Rp258
sg25
I1
sg26
F49.5
sbs(g8
S'contains(belt)'
p259
tp260
g0
(g14
g2
Ntp261
Rp262
(dp263
g18
F0.5
sg19
I11
sg20
g21
((dp264
I00
I11
stp265
Rp266
sg25
I1
sg26
F11.5
sbs(g9
S'contains(earmuff)'
p267
tp268
g0
(g14
g2
Ntp269
Rp270
(dp271
g18
F0.5
sg19
I49
sg20
g21
((dp272
I00
I49
stp273
Rp274
sg25
I1
sg26
F49.5
sbs(g9
S'contains(bag)'
p275
tp276
g0
(g14
g2
Ntp277
Rp278
(dp279
g18
F0.5
sg19
I49
sg20
g21
((dp280
I00
I45
sI01
I4
stp281
Rp282
sg25
I2
sg26
F50.0
sbs(g9
S'contains(purse)'
p283
tp284
g0
(g14
g2
Ntp285
Rp286
(dp287
g18
F0.5
sg19
I49
sg20
g21
((dp288
I00
I49
stp289
Rp290
sg25
I1
sg26
F49.5
sbs(g9
S'contains(bangle)'
p291
tp292
g0
(g14
g2
Ntp293
Rp294
(dp295
g18
F0.5
sg19
I49
sg20
g21
((dp296
I00
I49
stp297
Rp298
sg25
I1
sg26
F49.5
sbs(g8
S'contains(wallet)'
p299
tp300
g0
(g14
g2
Ntp301
Rp302
(dp303
g18
F0.5
sg19
I11
sg20
g21
((dp304
I00
I11
stp305
Rp306
sg25
I2
sg26
F12.0
sbs(g9
S'contains(suitcase)'
p307
tp308
g0
(g14
g2
Ntp309
Rp310
(dp311
g18
F0.5
sg19
I49
sg20
g21
((dp312
I00
I49
stp313
Rp314
sg25
I1
sg26
F49.5
sbs(g8
S'contains(necklace)'
p315
tp316
g0
(g14
g2
Ntp317
Rp318
(dp319
g18
F0.5
sg19
I11
sg20
g21
((dp320
I00
I11
stp321
Rp322
sg25
I1
sg26
F11.5
sbs(g9
S'contains(bracelet)'
p323
tp324
g0
(g14
g2
Ntp325
Rp326
(dp327
g18
F0.5
sg19
I49
sg20
g21
((dp328
I00
I49
stp329
Rp330
sg25
I2
sg26
F50.0
sbs(g8
S'contains(bag)'
p331
tp332
g0
(g14
g2
Ntp333
Rp334
(dp335
g18
F0.5
sg19
I11
sg20
g21
((dp336
I00
I8
sI01
I3
stp337
Rp338
sg25
I2
sg26
F12.0
sbs(g8
S'contains(handbag)'
p339
tp340
g0
(g14
g2
Ntp341
Rp342
(dp343
g18
F0.5
sg19
I11
sg20
g21
((dp344
I00
I8
sI01
I3
stp345
Rp346
sg25
I2
sg26
F12.0
sbs(g8
S'contains(tote)'
p347
tp348
g0
(g14
g2
Ntp349
Rp350
(dp351
g18
F0.5
sg19
I11
sg20
g21
((dp352
I00
I11
stp353
Rp354
sg25
I2
sg26
F12.0
sbs(g8
S'contains(suitcase)'
p355
tp356
g0
(g14
g2
Ntp357
Rp358
(dp359
g18
F0.5
sg19
I11
sg20
g21
((dp360
I00
I11
stp361
Rp362
sg25
I1
sg26
F11.5
sbs(g8
S'contains(glass)'
p363
tp364
g0
(g14
g2
Ntp365
Rp366
(dp367
g18
F0.5
sg19
I11
sg20
g21
((dp368
I00
I9
sI01
I2
stp369
Rp370
sg25
I2
sg26
F12.0
sbs(g8
S'contains(purse)'
p371
tp372
g0
(g14
g2
Ntp373
Rp374
(dp375
g18
F0.5
sg19
I11
sg20
g21
((dp376
I00
I11
stp377
Rp378
sg25
I1
sg26
F11.5
sbs(g9
S'contains(backpack)'
p379
tp380
g0
(g14
g2
Ntp381
Rp382
(dp383
g18
F0.5
sg19
I49
sg20
g21
((dp384
I00
I48
sI01
I1
stp385
Rp386
sg25
I2
sg26
F50.0
sbs(g8
S'contains(scatch)'
p387
tp388
g0
(g14
g2
Ntp389
Rp390
(dp391
g18
F0.5
sg19
I11
sg20
g21
((dp392
I00
I11
stp393
Rp394
sg25
I1
sg26
F11.5
sbs(g9
S'contains(charm)'
p395
tp396
g0
(g14
g2
Ntp397
Rp398
(dp399
g18
F0.5
sg19
I49
sg20
g21
((dp400
I00
I49
stp401
Rp402
sg25
I1
sg26
F49.5
sbs(g9
S'contains(glove)'
p403
tp404
g0
(g14
g2
Ntp405
Rp406
(dp407
g18
F0.5
sg19
I49
sg20
g21
((dp408
I00
I49
stp409
Rp410
sg25
I1
sg26
F49.5
sbs(g9
S'contains(cap)'
p411
tp412
g0
(g14
g2
Ntp413
Rp414
(dp415
g18
F0.5
sg19
I49
sg20
g21
((dp416
I00
I49
stp417
Rp418
sg25
I1
sg26
F49.5
sbs(g8
S'contains(charm)'
p419
tp420
g0
(g14
g2
Ntp421
Rp422
(dp423
g18
F0.5
sg19
I11
sg20
g21
((dp424
I00
I11
stp425
Rp426
sg25
I1
sg26
F11.5
sbs(g9
S'contains(hat)'
p427
tp428
g0
(g14
g2
Ntp429
Rp430
(dp431
g18
F0.5
sg19
I49
sg20
g21
((dp432
I00
I48
sI01
I1
stp433
Rp434
sg25
I2
sg26
F50.0
sbs(g8
S'contains(earmuff)'
p435
tp436
g0
(g14
g2
Ntp437
Rp438
(dp439
g18
F0.5
sg19
I11
sg20
g21
((dp440
I00
I11
stp441
Rp442
sg25
I1
sg26
F11.5
sbs(g9
S'contains(wristlet)'
p443
tp444
g0
(g14
g2
Ntp445
Rp446
(dp447
g18
F0.5
sg19
I49
sg20
g21
((dp448
I00
I49
stp449
Rp450
sg25
I1
sg26
F49.5
sbs(g8
S'contains(ring)'
p451
tp452
g0
(g14
g2
Ntp453
Rp454
(dp455
g18
F0.5
sg19
I11
sg20
g21
((dp456
I00
I11
stp457
Rp458
sg25
I1
sg26
F11.5
sbs(g8
S'contains(clutch)'
p459
tp460
g0
(g14
g2
Ntp461
Rp462
(dp463
g18
F0.5
sg19
I11
sg20
g21
((dp464
I00
I11
stp465
Rp466
sg25
I1
sg26
F11.5
sbssS'_label_probdist'
p467
g0
(g14
g2
Ntp468
Rp469
(dp470
g18
F0.5
sg19
I60
sg20
g21
((dp471
g8
I11
sg9
I49
stp472
Rp473
sg25
I2
sg26
F61.0
sbsb.