ccopy_reg
_reconstructor
p0
(cnltk.classify.naivebayes
NaiveBayesClassifier
p1
c__builtin__
object
p2
Ntp3
Rp4
(dp5
S'_labels'
p6
(lp7
S'other'
p8
aS'shoe'
p9
asS'_feature_probdist'
p10
(dp11
(g9
S'contains(sandal)'
p12
tp13
g0
(cnltk.probability
ELEProbDist
p14
g2
Ntp15
Rp16
(dp17
S'_gamma'
p18
F0.5
sS'_N'
p19
I7
sS'_freqdist'
p20
cnltk.probability
FreqDist
p21
((dp22
I00
I5
sI01
I2
stp23
Rp24
sS'_bins'
p25
I2
sS'_divisor'
p26
F8.0
sbs(g9
S'contains(slipper)'
p27
tp28
g0
(g14
g2
Ntp29
Rp30
(dp31
g18
F0.5
sg19
I7
sg20
g21
((dp32
I00
I7
stp33
Rp34
sg25
I1
sg26
F7.5
sbs(g9
S'contains(wedge)'
p35
tp36
g0
(g14
g2
Ntp37
Rp38
(dp39
g18
F0.5
sg19
I7
sg20
g21
((dp40
I00
I7
stp41
Rp42
sg25
I1
sg26
F7.5
sbs(g8
S'contains(flat)'
p43
tp44
g0
(g14
g2
Ntp45
Rp46
(dp47
g18
F0.5
sg19
I53
sg20
g21
((dp48
I00
I53
stp49
Rp50
sg25
I2
sg26
F54.0
sbs(g8
S'contains(pump)'
p51
tp52
g0
(g14
g2
Ntp53
Rp54
(dp55
g18
F0.5
sg19
I53
sg20
g21
((dp56
I00
I53
stp57
Rp58
sg25
I1
sg26
F53.5
sbs(g9
S'contains(flat)'
p59
tp60
g0
(g14
g2
Ntp61
Rp62
(dp63
g18
F0.5
sg19
I7
sg20
g21
((dp64
I00
I6
sI01
I1
stp65
Rp66
sg25
I2
sg26
F8.0
sbs(g8
S'contains(boot)'
p67
tp68
g0
(g14
g2
Ntp69
Rp70
(dp71
g18
F0.5
sg19
I53
sg20
g21
((dp72
I00
I53
stp73
Rp74
sg25
I2
sg26
F54.0
sbs(g9
S'contains(slip-on)'
p75
tp76
g0
(g14
g2
Ntp77
Rp78
(dp79
g18
F0.5
sg19
I7
sg20
g21
((dp80
I00
I7
stp81
Rp82
sg25
I1
sg26
F7.5
sbs(g8
S'contains(heel)'
p83
tp84
g0
(g14
g2
Ntp85
Rp86
(dp87
g18
F0.5
sg19
I53
sg20
g21
((dp88
I00
I53
stp89
Rp90
sg25
I1
sg26
F53.5
sbs(g9
S'contains(loafer)'
p91
tp92
g0
(g14
g2
Ntp93
Rp94
(dp95
g18
F0.5
sg19
I7
sg20
g21
((dp96
I00
I7
stp97
Rp98
sg25
I1
sg26
F7.5
sbs(g8
S'contains(oxford)'
p99
tp100
g0
(g14
g2
Ntp101
Rp102
(dp103
g18
F0.5
sg19
I53
sg20
g21
((dp104
I00
I53
stp105
Rp106
sg25
I1
sg26
F53.5
sbs(g9
S'contains(boot)'
p107
tp108
g0
(g14
g2
Ntp109
Rp110
(dp111
g18
F0.5
sg19
I7
sg20
g21
((dp112
I00
I6
sI01
I1
stp113
Rp114
sg25
I2
sg26
F8.0
sbs(g9
S'contains(sneaker)'
p115
tp116
g0
(g14
g2
Ntp117
Rp118
(dp119
g18
F0.5
sg19
I7
sg20
g21
((dp120
I00
I7
stp121
Rp122
sg25
I1
sg26
F7.5
sbs(g9
S'contains(heel)'
p123
tp124
g0
(g14
g2
Ntp125
Rp126
(dp127
g18
F0.5
sg19
I7
sg20
g21
((dp128
I00
I7
stp129
Rp130
sg25
I1
sg26
F7.5
sbs(g9
S'contains(mule)'
p131
tp132
g0
(g14
g2
Ntp133
Rp134
(dp135
g18
F0.5
sg19
I7
sg20
g21
((dp136
I00
I7
stp137
Rp138
sg25
I1
sg26
F7.5
sbs(g8
S'contains(sneaker)'
p139
tp140
g0
(g14
g2
Ntp141
Rp142
(dp143
g18
F0.5
sg19
I53
sg20
g21
((dp144
I00
I53
stp145
Rp146
sg25
I1
sg26
F53.5
sbs(g9
S'contains(pump)'
p147
tp148
g0
(g14
g2
Ntp149
Rp150
(dp151
g18
F0.5
sg19
I7
sg20
g21
((dp152
I00
I7
stp153
Rp154
sg25
I1
sg26
F7.5
sbs(g8
S'contains(wedge)'
p155
tp156
g0
(g14
g2
Ntp157
Rp158
(dp159
g18
F0.5
sg19
I53
sg20
g21
((dp160
I00
I53
stp161
Rp162
sg25
I1
sg26
F53.5
sbs(g8
S'contains(loafer)'
p163
tp164
g0
(g14
g2
Ntp165
Rp166
(dp167
g18
F0.5
sg19
I53
sg20
g21
((dp168
I00
I53
stp169
Rp170
sg25
I1
sg26
F53.5
sbs(g8
S'contains(sandal)'
p171
tp172
g0
(g14
g2
Ntp173
Rp174
(dp175
g18
F0.5
sg19
I53
sg20
g21
((dp176
I00
I52
sI01
I1
stp177
Rp178
sg25
I2
sg26
F54.0
sbs(g9
S'contains(oxford)'
p179
tp180
g0
(g14
g2
Ntp181
Rp182
(dp183
g18
F0.5
sg19
I7
sg20
g21
((dp184
I00
I7
stp185
Rp186
sg25
I1
sg26
F7.5
sbs(g8
S'contains(slip-on)'
p187
tp188
g0
(g14
g2
Ntp189
Rp190
(dp191
g18
F0.5
sg19
I53
sg20
g21
((dp192
I00
I53
stp193
Rp194
sg25
I1
sg26
F53.5
sbs(g8
S'contains(slipper)'
p195
tp196
g0
(g14
g2
Ntp197
Rp198
(dp199
g18
F0.5
sg19
I53
sg20
g21
((dp200
I00
I53
stp201
Rp202
sg25
I1
sg26
F53.5
sbs(g9
S'contains(clog)'
p203
tp204
g0
(g14
g2
Ntp205
Rp206
(dp207
g18
F0.5
sg19
I7
sg20
g21
((dp208
I00
I7
stp209
Rp210
sg25
I1
sg26
F7.5
sbs(g9
S'contains(shoe)'
p211
tp212
g0
(g14
g2
Ntp213
Rp214
(dp215
g18
F0.5
sg19
I7
sg20
g21
((dp216
I00
I1
sI01
I6
stp217
Rp218
sg25
I2
sg26
F8.0
sbs(g8
S'contains(mule)'
p219
tp220
g0
(g14
g2
Ntp221
Rp222
(dp223
g18
F0.5
sg19
I53
sg20
g21
((dp224
I00
I53
stp225
Rp226
sg25
I1
sg26
F53.5
sbs(g8
S'contains(shoe)'
p227
tp228
g0
(g14
g2
Ntp229
Rp230
(dp231
g18
F0.5
sg19
I53
sg20
g21
((dp232
I00
I52
sI01
I1
stp233
Rp234
sg25
I2
sg26
F54.0
sbs(g8
S'contains(clog)'
p235
tp236
g0
(g14
g2
Ntp237
Rp238
(dp239
g18
F0.5
sg19
I53
sg20
g21
((dp240
I00
I53
stp241
Rp242
sg25
I1
sg26
F53.5
sbssS'_label_probdist'
p243
g0
(g14
g2
Ntp244
Rp245
(dp246
g18
F0.5
sg19
I60
sg20
g21
((dp247
g8
I53
sg9
I7
stp248
Rp249
sg25
I2
sg26
F61.0
sbsb.