ccopy_reg
_reconstructor
p0
(cnltk.classify.naivebayes
NaiveBayesClassifier
p1
c__builtin__
object
p2
Ntp3
Rp4
(dp5
S'_labels'
p6
(lp7
S'beau'
p8
aS'other'
p9
asS'_feature_probdist'
p10
(dp11
(g9
S'contains(eye)'
p12
tp13
g0
(cnltk.probability
ELEProbDist
p14
g2
Ntp15
Rp16
(dp17
S'_gamma'
p18
F0.5
sS'_N'
p19
I54
sS'_freqdist'
p20
cnltk.probability
FreqDist
p21
((dp22
I00
I53
sI01
I1
stp23
Rp24
sS'_bins'
p25
I2
sS'_divisor'
p26
F55.0
sbs(g8
S'contains(makeup)'
p27
tp28
g0
(g14
g2
Ntp29
Rp30
(dp31
g18
F0.5
sg19
I6
sg20
g21
((dp32
I00
I4
sI01
I2
stp33
Rp34
sg25
I2
sg26
F7.0
sbs(g9
S'contains(bath)'
p35
tp36
g0
(g14
g2
Ntp37
Rp38
(dp39
g18
F0.5
sg19
I54
sg20
g21
((dp40
I00
I51
sI01
I3
stp41
Rp42
sg25
I2
sg26
F55.0
sbs(g9
S'contains(nail)'
p43
tp44
g0
(g14
g2
Ntp45
Rp46
(dp47
g18
F0.5
sg19
I54
sg20
g21
((dp48
I00
I53
sI01
I1
stp49
Rp50
sg25
I2
sg26
F55.0
sbs(g9
S'contains(care)'
p51
tp52
g0
(g14
g2
Ntp53
Rp54
(dp55
g18
F0.5
sg19
I54
sg20
g21
((dp56
I00
I50
sI01
I4
stp57
Rp58
sg25
I2
sg26
F55.0
sbs(g8
S'contains(bath)'
p59
tp60
g0
(g14
g2
Ntp61
Rp62
(dp63
g18
F0.5
sg19
I6
sg20
g21
((dp64
I00
I4
sI01
I2
stp65
Rp66
sg25
I2
sg26
F7.0
sbs(g8
S'contains(nail)'
p67
tp68
g0
(g14
g2
Ntp69
Rp70
(dp71
g18
F0.5
sg19
I6
sg20
g21
((dp72
I00
I6
stp73
Rp74
sg25
I2
sg26
F7.0
sbs(g9
S'contains(body)'
p75
tp76
g0
(g14
g2
Ntp77
Rp78
(dp79
g18
F0.5
sg19
I54
sg20
g21
((dp80
I00
I54
stp81
Rp82
sg25
I1
sg26
F54.5
sbs(g9
S'contains(makeup)'
p83
tp84
g0
(g14
g2
Ntp85
Rp86
(dp87
g18
F0.5
sg19
I54
sg20
g21
((dp88
I00
I54
stp89
Rp90
sg25
I2
sg26
F55.0
sbs(g8
S'contains(moisturizer)'
p91
tp92
g0
(g14
g2
Ntp93
Rp94
(dp95
g18
F0.5
sg19
I6
sg20
g21
((dp96
I00
I6
stp97
Rp98
sg25
I1
sg26
F6.5
sbs(g9
S'contains(moisturizer)'
p99
tp100
g0
(g14
g2
Ntp101
Rp102
(dp103
g18
F0.5
sg19
I54
sg20
g21
((dp104
I00
I54
stp105
Rp106
sg25
I1
sg26
F54.5
sbs(g9
S'contains(fragrance)'
p107
tp108
g0
(g14
g2
Ntp109
Rp110
(dp111
g18
F0.5
sg19
I54
sg20
g21
((dp112
I00
I54
stp113
Rp114
sg25
I1
sg26
F54.5
sbs(g9
S'contains(scent)'
p115
tp116
g0
(g14
g2
Ntp117
Rp118
(dp119
g18
F0.5
sg19
I54
sg20
g21
((dp120
I00
I53
sI01
I1
stp121
Rp122
sg25
I2
sg26
F55.0
sbs(g8
S'contains(wrinkle)'
p123
tp124
g0
(g14
g2
Ntp125
Rp126
(dp127
g18
F0.5
sg19
I6
sg20
g21
((dp128
I00
I6
stp129
Rp130
sg25
I1
sg26
F6.5
sbs(g8
S'contains(skincare)'
p131
tp132
g0
(g14
g2
Ntp133
Rp134
(dp135
g18
F0.5
sg19
I6
sg20
g21
((dp136
I00
I6
stp137
Rp138
sg25
I1
sg26
F6.5
sbs(g8
S'contains(cleanser)'
p139
tp140
g0
(g14
g2
Ntp141
Rp142
(dp143
g18
F0.5
sg19
I6
sg20
g21
((dp144
I00
I6
stp145
Rp146
sg25
I1
sg26
F6.5
sbs(g9
S'contains(lip)'
p147
tp148
g0
(g14
g2
Ntp149
Rp150
(dp151
g18
F0.5
sg19
I54
sg20
g21
((dp152
I00
I54
stp153
Rp154
sg25
I1
sg26
F54.5
sbs(g9
S'contains(face)'
p155
tp156
g0
(g14
g2
Ntp157
Rp158
(dp159
g18
F0.5
sg19
I54
sg20
g21
((dp160
I00
I53
sI01
I1
stp161
Rp162
sg25
I2
sg26
F55.0
sbs(g9
S'contains(beauty)'
p163
tp164
g0
(g14
g2
Ntp165
Rp166
(dp167
g18
F0.5
sg19
I54
sg20
g21
((dp168
I00
I54
stp169
Rp170
sg25
I1
sg26
F54.5
sbs(g9
S'contains(cosmetic)'
p171
tp172
g0
(g14
g2
Ntp173
Rp174
(dp175
g18
F0.5
sg19
I54
sg20
g21
((dp176
I00
I54
stp177
Rp178
sg25
I1
sg26
F54.5
sbs(g9
S'contains(hand)'
p179
tp180
g0
(g14
g2
Ntp181
Rp182
(dp183
g18
F0.5
sg19
I54
sg20
g21
((dp184
I00
I53
sI01
I1
stp185
Rp186
sg25
I2
sg26
F55.0
sbs(g8
S'contains(care)'
p187
tp188
g0
(g14
g2
Ntp189
Rp190
(dp191
g18
F0.5
sg19
I6
sg20
g21
((dp192
I00
I6
stp193
Rp194
sg25
I2
sg26
F7.0
sbs(g9
S'contains(cleanser)'
p195
tp196
g0
(g14
g2
Ntp197
Rp198
(dp199
g18
F0.5
sg19
I54
sg20
g21
((dp200
I00
I54
stp201
Rp202
sg25
I1
sg26
F54.5
sbs(g9
S'contains(soap)'
p203
tp204
g0
(g14
g2
Ntp205
Rp206
(dp207
g18
F0.5
sg19
I54
sg20
g21
((dp208
I00
I54
stp209
Rp210
sg25
I1
sg26
F54.5
sbs(g8
S'contains(body)'
p211
tp212
g0
(g14
g2
Ntp213
Rp214
(dp215
g18
F0.5
sg19
I6
sg20
g21
((dp216
I00
I6
stp217
Rp218
sg25
I1
sg26
F6.5
sbs(g9
S'contains(concentrate)'
p219
tp220
g0
(g14
g2
Ntp221
Rp222
(dp223
g18
F0.5
sg19
I54
sg20
g21
((dp224
I00
I54
stp225
Rp226
sg25
I1
sg26
F54.5
sbs(g9
S'contains(mask)'
p227
tp228
g0
(g14
g2
Ntp229
Rp230
(dp231
g18
F0.5
sg19
I54
sg20
g21
((dp232
I00
I54
stp233
Rp234
sg25
I1
sg26
F54.5
sbs(g9
S'contains(brush)'
p235
tp236
g0
(g14
g2
Ntp237
Rp238
(dp239
g18
F0.5
sg19
I54
sg20
g21
((dp240
I00
I54
stp241
Rp242
sg25
I2
sg26
F55.0
sbs(g8
S'contains(scent)'
p243
tp244
g0
(g14
g2
Ntp245
Rp246
(dp247
g18
F0.5
sg19
I6
sg20
g21
((dp248
I00
I6
stp249
Rp250
sg25
I2
sg26
F7.0
sbs(g9
S'contains(wrinkle)'
p251
tp252
g0
(g14
g2
Ntp253
Rp254
(dp255
g18
F0.5
sg19
I54
sg20
g21
((dp256
I00
I54
stp257
Rp258
sg25
I1
sg26
F54.5
sbs(g8
S'contains(fragrance)'
p259
tp260
g0
(g14
g2
Ntp261
Rp262
(dp263
g18
F0.5
sg19
I6
sg20
g21
((dp264
I00
I6
stp265
Rp266
sg25
I1
sg26
F6.5
sbs(g8
S'contains(concentrate)'
p267
tp268
g0
(g14
g2
Ntp269
Rp270
(dp271
g18
F0.5
sg19
I6
sg20
g21
((dp272
I00
I6
stp273
Rp274
sg25
I1
sg26
F6.5
sbs(g8
S'contains(mask)'
p275
tp276
g0
(g14
g2
Ntp277
Rp278
(dp279
g18
F0.5
sg19
I6
sg20
g21
((dp280
I00
I6
stp281
Rp282
sg25
I1
sg26
F6.5
sbs(g9
S'contains(skin)'
p283
tp284
g0
(g14
g2
Ntp285
Rp286
(dp287
g18
F0.5
sg19
I54
sg20
g21
((dp288
I00
I53
sI01
I1
stp289
Rp290
sg25
I2
sg26
F55.0
sbs(g9
S'contains(serum)'
p291
tp292
g0
(g14
g2
Ntp293
Rp294
(dp295
g18
F0.5
sg19
I54
sg20
g21
((dp296
I00
I54
stp297
Rp298
sg25
I2
sg26
F55.0
sbs(g8
S'contains(sun)'
p299
tp300
g0
(g14
g2
Ntp301
Rp302
(dp303
g18
F0.5
sg19
I6
sg20
g21
((dp304
I01
I6
stp305
Rp306
sg25
I1
sg26
F6.5
sbs(g8
S'contains(hand)'
p307
tp308
g0
(g14
g2
Ntp309
Rp310
(dp311
g18
F0.5
sg19
I6
sg20
g21
((dp312
I00
I4
sI01
I2
stp313
Rp314
sg25
I2
sg26
F7.0
sbs(g9
S'contains(hair)'
p315
tp316
g0
(g14
g2
Ntp317
Rp318
(dp319
g18
F0.5
sg19
I54
sg20
g21
((dp320
I00
I54
stp321
Rp322
sg25
I2
sg26
F55.0
sbs(g8
S'contains(face)'
p323
tp324
g0
(g14
g2
Ntp325
Rp326
(dp327
g18
F0.5
sg19
I6
sg20
g21
((dp328
I00
I6
stp329
Rp330
sg25
I2
sg26
F7.0
sbs(g8
S'contains(skin)'
p331
tp332
g0
(g14
g2
Ntp333
Rp334
(dp335
g18
F0.5
sg19
I6
sg20
g21
((dp336
I00
I6
stp337
Rp338
sg25
I2
sg26
F7.0
sbs(g8
S'contains(eye)'
p339
tp340
g0
(g14
g2
Ntp341
Rp342
(dp343
g18
F0.5
sg19
I6
sg20
g21
((dp344
I00
I5
sI01
I1
stp345
Rp346
sg25
I2
sg26
F7.0
sbs(g8
S'contains(cosmetic)'
p347
tp348
g0
(g14
g2
Ntp349
Rp350
(dp351
g18
F0.5
sg19
I6
sg20
g21
((dp352
I00
I6
stp353
Rp354
sg25
I1
sg26
F6.5
sbs(g8
S'contains(hair)'
p355
tp356
g0
(g14
g2
Ntp357
Rp358
(dp359
g18
F0.5
sg19
I6
sg20
g21
((dp360
I00
I5
sI01
I1
stp361
Rp362
sg25
I2
sg26
F7.0
sbs(g8
S'contains(serum)'
p363
tp364
g0
(g14
g2
Ntp365
Rp366
(dp367
g18
F0.5
sg19
I6
sg20
g21
((dp368
I00
I5
sI01
I1
stp369
Rp370
sg25
I2
sg26
F7.0
sbs(g8
S'contains(beauty)'
p371
tp372
g0
(g14
g2
Ntp373
Rp374
(dp375
g18
F0.5
sg19
I6
sg20
g21
((dp376
I00
I6
stp377
Rp378
sg25
I1
sg26
F6.5
sbs(g8
S'contains(lip)'
p379
tp380
g0
(g14
g2
Ntp381
Rp382
(dp383
g18
F0.5
sg19
I6
sg20
g21
((dp384
I00
I6
stp385
Rp386
sg25
I1
sg26
F6.5
sbs(g8
S'contains(soap)'
p387
tp388
g0
(g14
g2
Ntp389
Rp390
(dp391
g18
F0.5
sg19
I6
sg20
g21
((dp392
I00
I6
stp393
Rp394
sg25
I1
sg26
F6.5
sbs(g9
S'contains(sun)'
p395
tp396
g0
(g14
g2
Ntp397
Rp398
(dp399
g18
F0.5
sg19
I54
sg20
g21
((dp400
I01
I54
stp401
Rp402
sg25
I1
sg26
F54.5
sbs(g9
S'contains(skincare)'
p403
tp404
g0
(g14
g2
Ntp405
Rp406
(dp407
g18
F0.5
sg19
I54
sg20
g21
((dp408
I00
I54
stp409
Rp410
sg25
I1
sg26
F54.5
sbs(g8
S'contains(brush)'
p411
tp412
g0
(g14
g2
Ntp413
Rp414
(dp415
g18
F0.5
sg19
I6
sg20
g21
((dp416
I00
I4
sI01
I2
stp417
Rp418
sg25
I2
sg26
F7.0
sbssS'_label_probdist'
p419
g0
(g14
g2
Ntp420
Rp421
(dp422
g18
F0.5
sg19
I60
sg20
g21
((dp423
g8
I6
sg9
I54
stp424
Rp425
sg25
I2
sg26
F61.0
sbsb.